target datalayout = "e-m:e-p270:32:32-p271:32:32-p272:64:64-i64:64-i128:128-f80:128-n8:16:32:64-S128"
target triple = "x86_64-pc-linux-gnu"

%struct._stritem = type { ptr, ptr, ptr, i32, i32, i32, i16, i16, i8, i8, [0 x %union.anon] }
%union.anon = type { i64 }

; Function Attrs: nounwind uwtable
define dso_local void @item_free(ptr noundef %0) #0 {
  %2 = alloca ptr, align 8
  %3 = alloca i32, align 4
  store ptr %0, ptr %2, align 8, !tbaa !16
  call void @llvm.lifetime.start.p0(i64 4, ptr %3) #9
  %4 = load ptr, ptr %2, align 8, !tbaa !16
  %5 = getelementptr inbounds nuw %struct._stritem, ptr %4, i32 0, i32 8
  %6 = load i8, ptr %5, align 8, !tbaa !30
  %7 = zext i8 %6 to i32
  %8 = and i32 %7, -193
  store i32 %8, ptr %3, align 4, !tbaa !4
  br label %9

9:                                                ; preds = %10, %1
  br i1 false, label %10, label %11

10:                                               ; preds = %9
  br label %9

11:                                               ; preds = %9
  %12 = load ptr, ptr %2, align 8, !tbaa !16
  %13 = load i32, ptr %3, align 4, !tbaa !4
  call void @slabs_free(ptr noundef %12, i32 noundef %13)
  call void @llvm.lifetime.end.p0(i64 4, ptr %3) #9
  ret void
}

; Function Attrs: nounwind uwtable
define dso_local void @do_item_remove(ptr noundef %0) #0 {
  %2 = alloca ptr, align 8
  store ptr %0, ptr %2, align 8, !tbaa !16
  %3 = load ptr, ptr %2, align 8, !tbaa !16
  %4 = getelementptr inbounds nuw %struct._stritem, ptr %3, i32 0, i32 6
  %5 = load i16, ptr %4, align 4, !tbaa !34
  %6 = add i16 %5, -1
  store i16 %6, ptr %4, align 4, !tbaa !34
  %7 = zext i16 %6 to i32
  %8 = icmp eq i32 %7, 0
  br i1 %8, label %9, label %11

9:                                                ; preds = %1
  %10 = load ptr, ptr %2, align 8, !tbaa !16
  call void @item_free(ptr noundef %10)
  br label %11

11:                                               ; preds = %9, %1
  ret void
}