; Function Attrs: nounwind uwtable
define dso_local void @do_item_remove(ptr noundef %0) local_unnamed_addr #0 {
  %2 = getelementptr inbounds nuw i8, ptr %0, i64 36
  %3 = load i16, ptr %2, align 4, !tbaa !31
  %4 = add i16 %3, -1
  store i16 %4, ptr %2, align 4, !tbaa !31
  %5 = icmp eq i16 %4, 0
  br i1 %5, label %6, label %11

6:                                                ; preds = %1
  %7 = getelementptr inbounds nuw i8, ptr %0, i64 40
  %8 = load i8, ptr %7, align 8, !tbaa !30
  %9 = and i8 %8, 63
  %10 = zext nneg i8 %9 to i32
  tail call void @slabs_free(ptr noundef nonnull %0, i32 noundef %10) #19
  br label %11

11:                                               ; preds = %6, %1
  ret void
}